; Function Attrs: mustprogress nounwind uwtable
define hidden void @_ZN5ceres8internal25SchurJacobiPreconditionerD0Ev(ptr noundef nonnull align 8 dereferenceable(96) initializes((0, 8)) %0) unnamed_addr #8 align 2 personality ptr @__gxx_personality_v0 {
  store ptr getelementptr inbounds nuw inrange(-16, 112) (i8, ptr @_ZTVN5ceres8internal25SchurJacobiPreconditionerE, i64 16), ptr %0, align 8, !tbaa !3
  %2 = getelementptr inbounds nuw i8, ptr %0, i64 88
  %3 = load ptr, ptr %2, align 8, !tbaa !63
  %.not.i.i = icmp eq ptr %3, null
  br i1 %.not.i.i, label %_ZNSt10unique_ptrIN5ceres8internal31BlockRandomAccessDiagonalMatrixESt14default_deleteIS2_EED2Ev.exit.i, label %_ZNKSt14default_deleteIN5ceres8internal31BlockRandomAccessDiagonalMatrixEEclEPS2_.exit.i.i

_ZNKSt14default_deleteIN5ceres8internal31BlockRandomAccessDiagonalMatrixEEclEPS2_.exit.i.i: ; preds = %1
  %4 = load ptr, ptr %3, align 8, !tbaa !3
  %5 = getelementptr inbounds nuw i8, ptr %4, i64 8
  %6 = load ptr, ptr %5, align 8
  tail call void %6(ptr noundef nonnull align 8 dereferenceable(40) %3) #18
  br label %_ZNSt10unique_ptrIN5ceres8internal31BlockRandomAccessDiagonalMatrixESt14default_deleteIS2_EED2Ev.exit.i

_ZNSt10unique_ptrIN5ceres8internal31BlockRandomAccessDiagonalMatrixESt14default_deleteIS2_EED2Ev.exit.i: ; preds = %_ZNKSt14default_deleteIN5ceres8internal31BlockRandomAccessDiagonalMatrixEEclEPS2_.exit.i.i, %1
  store ptr null, ptr %2, align 8, !tbaa !63
  %7 = getelementptr inbounds nuw i8, ptr %0, i64 80
  %8 = load ptr, ptr %7, align 8, !tbaa !64
  %.not.i1.i = icmp eq ptr %8, null
  br i1 %.not.i1.i, label %_ZNSt10unique_ptrIN5ceres8internal19SchurEliminatorBaseESt14default_deleteIS2_EED2Ev.exit.i, label %_ZNKSt14default_deleteIN5ceres8internal19SchurEliminatorBaseEEclEPS2_.exit.i.i

_ZNKSt14default_deleteIN5ceres8internal19SchurEliminatorBaseEEclEPS2_.exit.i.i: ; preds = %_ZNSt10unique_ptrIN5ceres8internal31BlockRandomAccessDiagonalMatrixESt14default_deleteIS2_EED2Ev.exit.i
  %9 = load ptr, ptr %8, align 8, !tbaa !3
  %10 = getelementptr inbounds nuw i8, ptr %9, i64 8
  %11 = load ptr, ptr %10, align 8
  tail call void %11(ptr noundef nonnull align 8 dereferenceable(8) %8) #18
  br label %_ZNSt10unique_ptrIN5ceres8internal19SchurEliminatorBaseESt14default_deleteIS2_EED2Ev.exit.i

_ZNSt10unique_ptrIN5ceres8internal19SchurEliminatorBaseESt14default_deleteIS2_EED2Ev.exit.i: ; preds = %_ZNKSt14default_deleteIN5ceres8internal19SchurEliminatorBaseEEclEPS2_.exit.i.i, %_ZNSt10unique_ptrIN5ceres8internal31BlockRandomAccessDiagonalMatrixESt14default_deleteIS2_EED2Ev.exit.i
  store ptr null, ptr %7, align 8, !tbaa !64
  %12 = getelementptr inbounds nuw i8, ptr %0, i64 32
  %13 = load ptr, ptr %12, align 8, !tbaa !6
  %.not.i.i.i.i.i = icmp eq ptr %13, null
  br i1 %.not.i.i.i.i.i, label %_ZN5ceres8internal25SchurJacobiPreconditionerD2Ev.exit, label %14

14:                                               ; preds = %_ZNSt10unique_ptrIN5ceres8internal19SchurEliminatorBaseESt14default_deleteIS2_EED2Ev.exit.i
  %15 = getelementptr inbounds nuw i8, ptr %0, i64 48
  %16 = load ptr, ptr %15, align 8, !tbaa !12
  %17 = ptrtoint ptr %16 to i64
  %18 = ptrtoint ptr %13 to i64
  %19 = sub i64 %17, %18
  tail call void @_ZdlPvm(ptr noundef nonnull %13, i64 noundef %19) #22
  br label %_ZN5ceres8internal25SchurJacobiPreconditionerD2Ev.exit

_ZN5ceres8internal25SchurJacobiPreconditionerD2Ev.exit: ; preds = %_ZNSt10unique_ptrIN5ceres8internal19SchurEliminatorBaseESt14default_deleteIS2_EED2Ev.exit.i, %14
  tail call void @_ZN5ceres8internal14PreconditionerD2Ev(ptr noundef nonnull align 8 dereferenceable(96) %0) #18
  tail call void @_ZdlPvm(ptr noundef nonnull %0, i64 noundef 96) #22
  ret void
}